target datalayout = "e-m:e-p270:32:32-p271:32:32-p272:64:64-i64:64-i128:128-f80:128-n8:16:32:64-S128"
target triple = "x86_64-unknown-linux-gnu"

%"class.std::__cxx11::basic_string" = type { %"struct.std::__cxx11::basic_string<char>::_Alloc_hider", i64, %union.anon }
%"struct.std::__cxx11::basic_string<char>::_Alloc_hider" = type { ptr }
%union.anon = type { i64, [8 x i8] }
%class.aiVector3t = type { float, float, float }

@.str = private unnamed_addr constant [6 x i8] c"XGL: \00", align 1
@.str.82 = private unnamed_addr constant [37 x i8] c"unexpected EOL, failed to parse vec3\00", align 1
@.str.83 = private unnamed_addr constant [37 x i8] c"expected comma, failed to parse vec3\00", align 1

; Function Attrs: mustprogress nounwind uwtable
define linkonce_odr hidden noundef zeroext i1 @_ZN6Assimp9IsLineEndIcEEbT_(i8 noundef signext %in) #0 comdat {
entry:
  %in.addr = alloca i8, align 1
  store i8 %in, ptr %in.addr, align 1
  %0 = load i8, ptr %in.addr, align 1
  %conv = sext i8 %0 to i32
  %cmp = icmp eq i32 %conv, 13
  br i1 %cmp, label %lor.end, label %lor.lhs.false

lor.lhs.false:                                    ; preds = %entry
  %1 = load i8, ptr %in.addr, align 1
  %conv1 = sext i8 %1 to i32
  %cmp2 = icmp eq i32 %conv1, 10
  br i1 %cmp2, label %lor.end, label %lor.lhs.false3

lor.lhs.false3:                                   ; preds = %lor.lhs.false
  %2 = load i8, ptr %in.addr, align 1
  %conv4 = sext i8 %2 to i32
  %cmp5 = icmp eq i32 %conv4, 0
  br i1 %cmp5, label %lor.end, label %lor.rhs

lor.rhs:                                          ; preds = %lor.lhs.false3
  %3 = load i8, ptr %in.addr, align 1
  %conv6 = sext i8 %3 to i32
  %cmp7 = icmp eq i32 %conv6, 12
  br label %lor.end

lor.end:                                          ; preds = %lor.rhs, %lor.lhs.false3, %lor.lhs.false, %entry
  %4 = phi i1 [ true, %lor.lhs.false3 ], [ true, %lor.lhs.false ], [ true, %entry ], [ %cmp7, %lor.rhs ]
  ret i1 %4
}

; Function Attrs: mustprogress nounwind uwtable
define hidden noundef ptr @_ZN6Assimp12LogFunctionsINS_11XGLImporterEE6PrefixEv() #0 align 2 {
entry:
  ret ptr @.str
}

; Function Attrs: mustprogress uwtable
define linkonce_odr hidden noundef zeroext i1 @_ZN6Assimp10SkipSpacesIcEEbPKT_PS3_(ptr noundef %in, ptr noundef %out) #2 comdat {
entry:
  %in.addr = alloca ptr, align 8
  %out.addr = alloca ptr, align 8
  store ptr %in, ptr %in.addr, align 8
  store ptr %out, ptr %out.addr, align 8
  br label %while.cond

while.cond:                                       ; preds = %while.body, %entry
  %0 = load ptr, ptr %in.addr, align 8
  %1 = load i8, ptr %0, align 1
  %conv = sext i8 %1 to i32
  %cmp = icmp eq i32 %conv, 32
  br i1 %cmp, label %lor.end, label %lor.rhs

lor.rhs:                                          ; preds = %while.cond
  %2 = load ptr, ptr %in.addr, align 8
  %3 = load i8, ptr %2, align 1
  %conv1 = sext i8 %3 to i32
  %cmp2 = icmp eq i32 %conv1, 9
  br label %lor.end

lor.end:                                          ; preds = %lor.rhs, %while.cond
  %4 = phi i1 [ true, %while.cond ], [ %cmp2, %lor.rhs ]
  br i1 %4, label %while.body, label %while.end

while.body:                                       ; preds = %lor.end
  %5 = load ptr, ptr %in.addr, align 8
  %incdec.ptr = getelementptr inbounds i8, ptr %5, i32 1
  store ptr %incdec.ptr, ptr %in.addr, align 8
  br label %while.cond, !llvm.loop !54

while.end:                                        ; preds = %lor.end
  %6 = load ptr, ptr %in.addr, align 8
  %7 = load ptr, ptr %out.addr, align 8
  store ptr %6, ptr %7, align 8
  %8 = load ptr, ptr %in.addr, align 8
  %9 = load i8, ptr %8, align 1
  %call = call noundef zeroext i1 @_ZN6Assimp9IsLineEndIcEEbT_(i8 noundef signext %9)
  %lnot = xor i1 %call, true
  ret i1 %lnot
}

; Function Attrs: mustprogress nounwind uwtable
define linkonce_odr hidden noundef nonnull align 4 dereferenceable(4) ptr @_ZN10aiVector3tIfEixEj(ptr noundef nonnull align 4 dereferenceable(12) %this, i32 noundef %i) #0 comdat align 2 {
entry:
  %retval = alloca ptr, align 8
  %this.addr = alloca ptr, align 8
  %i.addr = alloca i32, align 4
  store ptr %this, ptr %this.addr, align 8
  store i32 %i, ptr %i.addr, align 4
  %this1 = load ptr, ptr %this.addr, align 8
  %0 = load i32, ptr %i.addr, align 4
  switch i32 %0, label %sw.default [
    i32 0, label %sw.bb
    i32 1, label %sw.bb2
    i32 2, label %sw.bb3
  ]

sw.bb:                                            ; preds = %entry
  %x = getelementptr inbounds %class.aiVector3t, ptr %this1, i32 0, i32 0
  store ptr %x, ptr %retval, align 8
  br label %return

sw.bb2:                                           ; preds = %entry
  %y = getelementptr inbounds %class.aiVector3t, ptr %this1, i32 0, i32 1
  store ptr %y, ptr %retval, align 8
  br label %return

sw.bb3:                                           ; preds = %entry
  %z = getelementptr inbounds %class.aiVector3t, ptr %this1, i32 0, i32 2
  store ptr %z, ptr %retval, align 8
  br label %return

sw.default:                                       ; preds = %entry
  br label %sw.epilog

sw.epilog:                                        ; preds = %sw.default
  %x4 = getelementptr inbounds %class.aiVector3t, ptr %this1, i32 0, i32 0
  store ptr %x4, ptr %retval, align 8
  br label %return

return:                                           ; preds = %sw.epilog, %sw.bb3, %sw.bb2, %sw.bb
  %1 = load ptr, ptr %retval, align 8
  ret ptr %1
}

; Function Attrs: mustprogress uwtable
define linkonce_odr hidden noundef float @_ZN6Assimp9fast_atofI17DeadlyImportErrorEEfPPKc(ptr noundef %inout) #2 comdat {
entry:
  %inout.addr = alloca ptr, align 8
  %ret = alloca float, align 4
  store ptr %inout, ptr %inout.addr, align 8
  store float 0.000000e+00, ptr %ret, align 4
  %0 = load ptr, ptr %inout.addr, align 8
  %1 = load ptr, ptr %0, align 8
  %call = call noundef ptr @_ZN6Assimp17fast_atoreal_moveIf17DeadlyImportErrorEEPKcS3_RT_b(ptr noundef %1, ptr noundef nonnull align 4 dereferenceable(4) %ret, i1 noundef zeroext true)
  %2 = load ptr, ptr %inout.addr, align 8
  store ptr %call, ptr %2, align 8
  %3 = load float, ptr %ret, align 4
  ret float %3
}

; Function Attrs: mustprogress uwtable
define linkonce_odr hidden void @_ZN6Assimp12LogFunctionsINS_11XGLImporterEE8LogErrorIJRA37_KcEEEvDpOT_(ptr noundef nonnull align 1 dereferenceable(37) %args) #2 comdat align 2 {
entry:
  %args.addr = alloca ptr, align 8
  %ref.tmp = alloca ptr, align 8
  store ptr %args, ptr %args.addr, align 8
  %call = call noundef zeroext i1 @_ZN6Assimp13DefaultLogger12isNullLoggerEv()
  br i1 %call, label %if.end, label %if.then

if.then:                                          ; preds = %entry
  %call1 = call noundef ptr @_ZN6Assimp13DefaultLogger3getEv()
  %call2 = call noundef ptr @_ZN6Assimp12LogFunctionsINS_11XGLImporterEE6PrefixEv()
  store ptr %call2, ptr %ref.tmp, align 8
  %0 = load ptr, ptr %args.addr, align 8
  call void @_ZN6Assimp6Logger5errorIJPKcRA37_S2_EEEvDpOT_(ptr noundef nonnull align 8 dereferenceable(12) %call1, ptr noundef nonnull align 8 dereferenceable(8) %ref.tmp, ptr noundef nonnull align 1 dereferenceable(37) %0)
  br label %if.end

if.end:                                           ; preds = %if.then, %entry
  ret void
}

; Function Attrs: mustprogress uwtable
define linkonce_odr hidden noundef zeroext i1 @_ZN6Assimp10SkipSpacesIcEEbPPKT_(ptr noundef %inout) #2 comdat {
entry:
  %inout.addr = alloca ptr, align 8
  store ptr %inout, ptr %inout.addr, align 8
  %0 = load ptr, ptr %inout.addr, align 8
  %1 = load ptr, ptr %0, align 8
  %2 = load ptr, ptr %inout.addr, align 8
  %call = call noundef zeroext i1 @_ZN6Assimp10SkipSpacesIcEEbPKT_PS3_(ptr noundef %1, ptr noundef %2)
  ret i1 %call
}

; Function Attrs: mustprogress nounwind uwtable
define linkonce_odr hidden void @_ZN10aiVector3tIfEC2Ev(ptr noundef nonnull align 4 dereferenceable(12) %this) unnamed_addr #0 comdat align 2 {
entry:
  %this.addr = alloca ptr, align 8
  store ptr %this, ptr %this.addr, align 8
  %this1 = load ptr, ptr %this.addr, align 8
  %x = getelementptr inbounds %class.aiVector3t, ptr %this1, i32 0, i32 0
  store float 0.000000e+00, ptr %x, align 4
  %y = getelementptr inbounds %class.aiVector3t, ptr %this1, i32 0, i32 1
  store float 0.000000e+00, ptr %y, align 4
  %z = getelementptr inbounds %class.aiVector3t, ptr %this1, i32 0, i32 2
  store float 0.000000e+00, ptr %z, align 4
  ret void
}

; Function Attrs: mustprogress uwtable
define hidden { <2 x float>, float } @_ZN6Assimp11XGLImporter8ReadVec3ERN4pugi8xml_nodeE(ptr noundef nonnull align 8 dereferenceable(88) %this, ptr noundef nonnull align 8 dereferenceable(8) %node) #2 align 2 personality ptr @__gxx_personality_v0 {
entry:
  %retval = alloca %class.aiVector3t, align 4
  %this.addr = alloca ptr, align 8
  %node.addr = alloca ptr, align 8
  %v = alloca %"class.std::__cxx11::basic_string", align 8
  %exn.slot = alloca ptr, align 8
  %ehselector.slot = alloca i32, align 4
  %s = alloca ptr, align 8
  %i = alloca i32, align 4
  %cleanup.dest.slot = alloca i32, align 4
  %retval.coerce = alloca { <2 x float>, float }, align 8
  store ptr %this, ptr %this.addr, align 8
  store ptr %node, ptr %node.addr, align 8
  call void @_ZN10aiVector3tIfEC2Ev(ptr noundef nonnull align 4 dereferenceable(12) %retval) #5
  call void @_ZNSt7__cxx1112basic_stringIcSt11char_traitsIcESaIcEEC1Ev(ptr noundef nonnull align 8 dereferenceable(32) %v) #5
  %0 = load ptr, ptr %node.addr, align 8
  %call = invoke noundef zeroext i1 @_ZN6Assimp10TXmlParserIN4pugi8xml_nodeEE16getValueAsStringERS2_RNSt7__cxx1112basic_stringIcSt11char_traitsIcESaIcEEE(ptr noundef nonnull align 8 dereferenceable(8) %0, ptr noundef nonnull align 8 dereferenceable(32) %v)
          to label %invoke.cont unwind label %lpad

invoke.cont:                                      ; preds = %entry
  %call2 = call noundef ptr @_ZNKSt7__cxx1112basic_stringIcSt11char_traitsIcESaIcEE5c_strEv(ptr noundef nonnull align 8 dereferenceable(32) %v) #5
  store ptr %call2, ptr %s, align 8
  store i32 0, ptr %i, align 4
  br label %for.cond

for.cond:                                         ; preds = %for.inc, %invoke.cont
  %1 = load i32, ptr %i, align 4
  %cmp = icmp slt i32 %1, 3
  br i1 %cmp, label %for.body, label %for.end

for.body:                                         ; preds = %for.cond
  %call4 = invoke noundef zeroext i1 @_ZN6Assimp10SkipSpacesIcEEbPPKT_(ptr noundef %s)
          to label %invoke.cont3 unwind label %lpad

invoke.cont3:                                     ; preds = %for.body
  br i1 %call4, label %if.end, label %if.then

if.then:                                          ; preds = %invoke.cont3
  invoke void @_ZN6Assimp12LogFunctionsINS_11XGLImporterEE8LogErrorIJRA37_KcEEEvDpOT_(ptr noundef nonnull align 1 dereferenceable(37) @.str.82)
          to label %invoke.cont5 unwind label %lpad

invoke.cont5:                                     ; preds = %if.then
  store i32 1, ptr %cleanup.dest.slot, align 4
  br label %cleanup

lpad:                                             ; preds = %if.then14, %invoke.cont8, %invoke.cont6, %if.end, %if.then, %for.body, %entry
  %2 = landingpad { ptr, i32 }
          cleanup
  %3 = extractvalue { ptr, i32 } %2, 0
  store ptr %3, ptr %exn.slot, align 8
  %4 = extractvalue { ptr, i32 } %2, 1
  store i32 %4, ptr %ehselector.slot, align 4
  call void @_ZNSt7__cxx1112basic_stringIcSt11char_traitsIcESaIcEED1Ev(ptr noundef nonnull align 8 dereferenceable(32) %v) #5
  br label %eh.resume

if.end:                                           ; preds = %invoke.cont3
  %call7 = invoke noundef float @_ZN6Assimp9fast_atofI17DeadlyImportErrorEEfPPKc(ptr noundef %s)
          to label %invoke.cont6 unwind label %lpad

invoke.cont6:                                     ; preds = %if.end
  %5 = load i32, ptr %i, align 4
  %call9 = invoke noundef nonnull align 4 dereferenceable(4) ptr @_ZN10aiVector3tIfEixEj(ptr noundef nonnull align 4 dereferenceable(12) %retval, i32 noundef %5)
          to label %invoke.cont8 unwind label %lpad

invoke.cont8:                                     ; preds = %invoke.cont6
  store float %call7, ptr %call9, align 4
  %call11 = invoke noundef zeroext i1 @_ZN6Assimp10SkipSpacesIcEEbPPKT_(ptr noundef %s)
          to label %invoke.cont10 unwind label %lpad

invoke.cont10:                                    ; preds = %invoke.cont8
  %6 = load i32, ptr %i, align 4
  %cmp12 = icmp ne i32 %6, 2
  br i1 %cmp12, label %land.lhs.true, label %if.end16

land.lhs.true:                                    ; preds = %invoke.cont10
  %7 = load ptr, ptr %s, align 8
  %8 = load i8, ptr %7, align 1
  %conv = sext i8 %8 to i32
  %cmp13 = icmp ne i32 %conv, 44
  br i1 %cmp13, label %if.then14, label %if.end16

if.then14:                                        ; preds = %land.lhs.true
  invoke void @_ZN6Assimp12LogFunctionsINS_11XGLImporterEE8LogErrorIJRA37_KcEEEvDpOT_(ptr noundef nonnull align 1 dereferenceable(37) @.str.83)
          to label %invoke.cont15 unwind label %lpad

invoke.cont15:                                    ; preds = %if.then14
  store i32 1, ptr %cleanup.dest.slot, align 4
  br label %cleanup

if.end16:                                         ; preds = %land.lhs.true, %invoke.cont10
  %9 = load ptr, ptr %s, align 8
  %incdec.ptr = getelementptr inbounds i8, ptr %9, i32 1
  store ptr %incdec.ptr, ptr %s, align 8
  br label %for.inc

for.inc:                                          ; preds = %if.end16
  %10 = load i32, ptr %i, align 4
  %inc = add nsw i32 %10, 1
  store i32 %inc, ptr %i, align 4
  br label %for.cond, !llvm.loop !12

for.end:                                          ; preds = %for.cond
  store i32 1, ptr %cleanup.dest.slot, align 4
  br label %cleanup

cleanup:                                          ; preds = %for.end, %invoke.cont15, %invoke.cont5
  call void @_ZNSt7__cxx1112basic_stringIcSt11char_traitsIcESaIcEED1Ev(ptr noundef nonnull align 8 dereferenceable(32) %v) #5
  call void @llvm.memcpy.p0.p0.i64(ptr align 8 %retval.coerce, ptr align 4 %retval, i64 12, i1 false)
  %11 = load { <2 x float>, float }, ptr %retval.coerce, align 8
  ret { <2 x float>, float } %11

eh.resume:                                        ; preds = %lpad
  %exn = load ptr, ptr %exn.slot, align 8
  %sel = load i32, ptr %ehselector.slot, align 4
  %lpad.val = insertvalue { ptr, i32 } poison, ptr %exn, 0
  %lpad.val17 = insertvalue { ptr, i32 } %lpad.val, i32 %sel, 1
  resume { ptr, i32 } %lpad.val17
}