; Function Attrs: mustprogress uwtable
define hidden { <2 x float>, float } @_ZN6Assimp11XGLImporter8ReadVec3ERN4pugi8xml_nodeE(ptr nocapture nonnull readnone align 8 %this, ptr noundef nonnull align 8 dereferenceable(8) %node) local_unnamed_addr #6 align 2 personality ptr @__gxx_personality_v0 {
entry:
  %ref.tmp.i18 = alloca ptr, align 8
  %ret.i = alloca float, align 4
  %ref.tmp.i = alloca ptr, align 8
  %retval.sroa.0 = alloca <2 x float>, align 8
  %retval.sroa.5 = alloca float, align 4
  %v = alloca %"class.std::__cxx11::basic_string", align 8
  %retval.sroa.0.4.y.i.sroa_idx = getelementptr inbounds i8, ptr %retval.sroa.0, i64 4
  store <2 x float> zeroinitializer, ptr %retval.sroa.0, align 8
  store float 0.000000e+00, ptr %retval.sroa.5, align 4
  call void @_ZNSt7__cxx1112basic_stringIcSt11char_traitsIcESaIcEEC1Ev(ptr noundef nonnull align 8 dereferenceable(32) %v) #24
  %call = invoke noundef zeroext i1 @_ZN6Assimp10TXmlParserIN4pugi8xml_nodeEE16getValueAsStringERS2_RNSt7__cxx1112basic_stringIcSt11char_traitsIcESaIcEEE(ptr noundef nonnull align 8 dereferenceable(8) %node, ptr noundef nonnull align 8 dereferenceable(32) %v)
          to label %invoke.cont unwind label %lpad.loopexit.split-lp

invoke.cont:                                      ; preds = %entry
  %call2 = call noundef ptr @_ZNKSt7__cxx1112basic_stringIcSt11char_traitsIcESaIcEE5c_strEv(ptr noundef nonnull align 8 dereferenceable(32) %v) #24
  br label %while.cond.i.i.preheader

while.cond.i.i.preheader:                         ; preds = %invoke.cont, %if.end16
  %i.037 = phi i32 [ 0, %invoke.cont ], [ %inc, %if.end16 ]
  %s.036 = phi ptr [ %call2, %invoke.cont ], [ %incdec.ptr, %if.end16 ]
  br label %while.cond.i.i

while.cond.i.i:                                   ; preds = %while.cond.i.i.preheader, %while.body.i.i
  %in.addr.0.i.i = phi ptr [ %incdec.ptr.i.i, %while.body.i.i ], [ %s.036, %while.cond.i.i.preheader ]
  %0 = load i8, ptr %in.addr.0.i.i, align 1
  switch i8 %0, label %if.end [
    i8 32, label %while.body.i.i
    i8 9, label %while.body.i.i
    i8 13, label %if.then
    i8 10, label %if.then
    i8 0, label %if.then
    i8 12, label %if.then
  ]

while.body.i.i:                                   ; preds = %while.cond.i.i, %while.cond.i.i
  %incdec.ptr.i.i = getelementptr inbounds i8, ptr %in.addr.0.i.i, i64 1
  br label %while.cond.i.i, !llvm.loop !50

if.then:                                          ; preds = %while.cond.i.i, %while.cond.i.i, %while.cond.i.i, %while.cond.i.i
  call void @llvm.lifetime.start.p0(i64 8, ptr nonnull %ref.tmp.i)
  %call.i4 = invoke noundef zeroext i1 @_ZN6Assimp13DefaultLogger12isNullLoggerEv()
          to label %call.i.noexc unwind label %lpad.loopexit.split-lp

call.i.noexc:                                     ; preds = %if.then
  br i1 %call.i4, label %_ZN6Assimp12LogFunctionsINS_11XGLImporterEE8LogErrorIJRA37_KcEEEvDpOT_.exit, label %if.then.i

if.then.i:                                        ; preds = %call.i.noexc
  %call1.i5 = invoke noundef ptr @_ZN6Assimp13DefaultLogger3getEv()
          to label %call1.i.noexc unwind label %lpad.loopexit.split-lp

call1.i.noexc:                                    ; preds = %if.then.i
  store ptr @.str, ptr %ref.tmp.i, align 8
  invoke void @_ZN6Assimp6Logger5errorIJPKcRA37_S2_EEEvDpOT_(ptr noundef nonnull align 8 dereferenceable(12) %call1.i5, ptr noundef nonnull align 8 dereferenceable(8) %ref.tmp.i, ptr noundef nonnull align 1 dereferenceable(37) @.str.82)
          to label %_ZN6Assimp12LogFunctionsINS_11XGLImporterEE8LogErrorIJRA37_KcEEEvDpOT_.exit unwind label %lpad.loopexit.split-lp

_ZN6Assimp12LogFunctionsINS_11XGLImporterEE8LogErrorIJRA37_KcEEEvDpOT_.exit: ; preds = %call1.i.noexc, %call.i.noexc
  call void @llvm.lifetime.end.p0(i64 8, ptr nonnull %ref.tmp.i)
  br label %cleanup

lpad.loopexit:                                    ; preds = %if.end
  %lpad.loopexit33 = landingpad { ptr, i32 }
          cleanup
  br label %lpad

lpad.loopexit.split-lp:                           ; preds = %entry, %if.then, %if.then.i, %call1.i.noexc, %if.then14, %if.then.i19, %call1.i.noexc22
  %lpad.loopexit.split-lp34 = landingpad { ptr, i32 }
          cleanup
  br label %lpad

lpad:                                             ; preds = %lpad.loopexit.split-lp, %lpad.loopexit
  %lpad.phi = phi { ptr, i32 } [ %lpad.loopexit33, %lpad.loopexit ], [ %lpad.loopexit.split-lp34, %lpad.loopexit.split-lp ]
  call void @_ZNSt7__cxx1112basic_stringIcSt11char_traitsIcESaIcEED1Ev(ptr noundef nonnull align 8 dereferenceable(32) %v) #24
  resume { ptr, i32 } %lpad.phi

if.end:                                           ; preds = %while.cond.i.i
  call void @llvm.lifetime.start.p0(i64 4, ptr nonnull %ret.i)
  store float 0.000000e+00, ptr %ret.i, align 4
  %call.i7 = invoke noundef ptr @_ZN6Assimp17fast_atoreal_moveIf17DeadlyImportErrorEEPKcS3_RT_b(ptr noundef nonnull %in.addr.0.i.i, ptr noundef nonnull align 4 dereferenceable(4) %ret.i, i1 noundef zeroext true)
          to label %invoke.cont6 unwind label %lpad.loopexit

invoke.cont6:                                     ; preds = %if.end
  %1 = load float, ptr %ret.i, align 4
  call void @llvm.lifetime.end.p0(i64 4, ptr nonnull %ret.i)
  switch i32 %i.037, label %_ZN10aiVector3tIfEixEj.exit [
    i32 2, label %sw.bb3.i
    i32 1, label %sw.bb2.i
  ]

sw.bb2.i:                                         ; preds = %invoke.cont6
  br label %_ZN10aiVector3tIfEixEj.exit

sw.bb3.i:                                         ; preds = %invoke.cont6
  br label %_ZN10aiVector3tIfEixEj.exit

_ZN10aiVector3tIfEixEj.exit:                      ; preds = %invoke.cont6, %sw.bb2.i, %sw.bb3.i
  %retval.0.i = phi ptr [ %retval.sroa.5, %sw.bb3.i ], [ %retval.sroa.0.4.y.i.sroa_idx, %sw.bb2.i ], [ %retval.sroa.0, %invoke.cont6 ]
  store float %1, ptr %retval.0.i, align 4
  br label %while.cond.i.i10

while.cond.i.i10:                                 ; preds = %while.body.i.i12, %_ZN10aiVector3tIfEixEj.exit
  %in.addr.0.i.i11 = phi ptr [ %call.i7, %_ZN10aiVector3tIfEixEj.exit ], [ %incdec.ptr.i.i13, %while.body.i.i12 ]
  %2 = load i8, ptr %in.addr.0.i.i11, align 1
  switch i8 %2, label %invoke.cont10 [
    i8 32, label %while.body.i.i12
    i8 9, label %while.body.i.i12
  ]

while.body.i.i12:                                 ; preds = %while.cond.i.i10, %while.cond.i.i10
  %incdec.ptr.i.i13 = getelementptr inbounds i8, ptr %in.addr.0.i.i11, i64 1
  br label %while.cond.i.i10, !llvm.loop !50

invoke.cont10:                                    ; preds = %while.cond.i.i10
  %cmp12.not = icmp eq i32 %i.037, 2
  %cmp13.not = icmp eq i8 %2, 44
  %or.cond = or i1 %cmp12.not, %cmp13.not
  br i1 %or.cond, label %if.end16, label %if.then14

if.then14:                                        ; preds = %invoke.cont10
  call void @llvm.lifetime.start.p0(i64 8, ptr nonnull %ref.tmp.i18)
  %call.i21 = invoke noundef zeroext i1 @_ZN6Assimp13DefaultLogger12isNullLoggerEv()
          to label %call.i.noexc20 unwind label %lpad.loopexit.split-lp

call.i.noexc20:                                   ; preds = %if.then14
  br i1 %call.i21, label %_ZN6Assimp12LogFunctionsINS_11XGLImporterEE8LogErrorIJRA37_KcEEEvDpOT_.exit25, label %if.then.i19

if.then.i19:                                      ; preds = %call.i.noexc20
  %call1.i23 = invoke noundef ptr @_ZN6Assimp13DefaultLogger3getEv()
          to label %call1.i.noexc22 unwind label %lpad.loopexit.split-lp

call1.i.noexc22:                                  ; preds = %if.then.i19
  store ptr @.str, ptr %ref.tmp.i18, align 8
  invoke void @_ZN6Assimp6Logger5errorIJPKcRA37_S2_EEEvDpOT_(ptr noundef nonnull align 8 dereferenceable(12) %call1.i23, ptr noundef nonnull align 8 dereferenceable(8) %ref.tmp.i18, ptr noundef nonnull align 1 dereferenceable(37) @.str.83)
          to label %_ZN6Assimp12LogFunctionsINS_11XGLImporterEE8LogErrorIJRA37_KcEEEvDpOT_.exit25 unwind label %lpad.loopexit.split-lp

_ZN6Assimp12LogFunctionsINS_11XGLImporterEE8LogErrorIJRA37_KcEEEvDpOT_.exit25: ; preds = %call1.i.noexc22, %call.i.noexc20
  call void @llvm.lifetime.end.p0(i64 8, ptr nonnull %ref.tmp.i18)
  br label %cleanup

if.end16:                                         ; preds = %invoke.cont10
  %incdec.ptr = getelementptr inbounds i8, ptr %in.addr.0.i.i11, i64 1
  %inc = add nuw nsw i32 %i.037, 1
  %exitcond.not = icmp eq i32 %inc, 3
  br i1 %exitcond.not, label %cleanup, label %while.cond.i.i.preheader, !llvm.loop !51

cleanup:                                          ; preds = %if.end16, %_ZN6Assimp12LogFunctionsINS_11XGLImporterEE8LogErrorIJRA37_KcEEEvDpOT_.exit25, %_ZN6Assimp12LogFunctionsINS_11XGLImporterEE8LogErrorIJRA37_KcEEEvDpOT_.exit
  call void @_ZNSt7__cxx1112basic_stringIcSt11char_traitsIcESaIcEED1Ev(ptr noundef nonnull align 8 dereferenceable(32) %v) #24
  %retval.sroa.0.0.retval.sroa.0.0.retval.sroa.0.0.retval.sroa.0.0.retval.coerce.sroa.0.0.copyload = load <2 x float>, ptr %retval.sroa.0, align 8
  %retval.sroa.5.0.retval.sroa.5.0.retval.sroa.5.0.retval.sroa.5.8.retval.coerce.sroa.2.0.copyload = load float, ptr %retval.sroa.5, align 4
  %.fca.0.insert = insertvalue { <2 x float>, float } poison, <2 x float> %retval.sroa.0.0.retval.sroa.0.0.retval.sroa.0.0.retval.sroa.0.0.retval.coerce.sroa.0.0.copyload, 0
  %.fca.1.insert = insertvalue { <2 x float>, float } %.fca.0.insert, float %retval.sroa.5.0.retval.sroa.5.0.retval.sroa.5.0.retval.sroa.5.8.retval.coerce.sroa.2.0.copyload, 1
  ret { <2 x float>, float } %.fca.1.insert
}